; Function Attrs: nounwind uwtable
define noalias noundef ptr @Gia_ManTerTranspose(ptr noundef readonly captures(none) %0) local_unnamed_addr #0 {
  %2 = tail call noalias dereferenceable_or_null(16) ptr @malloc(i64 noundef 16) #23
  %3 = getelementptr inbounds nuw i8, ptr %2, i64 4
  store i32 0, ptr %3, align 4
  store i32 100, ptr %2, align 8
  %4 = tail call noalias dereferenceable_or_null(800) ptr @malloc(i64 noundef 800) #23
  %5 = getelementptr inbounds nuw i8, ptr %2, i64 8
  store ptr %4, ptr %5, align 8
  %6 = getelementptr inbounds nuw i8, ptr %0, i64 16
  %7 = load ptr, ptr %0, align 8
  %8 = getelementptr i8, ptr %7, i64 16
  %.val28 = load i32, ptr %8, align 8
  %9 = icmp sgt i32 %.val28, 0
  br i1 %9, label %.lr.ph31, label %._crit_edge

.lr.ph31:                                         ; preds = %1
  %10 = load ptr, ptr %6, align 8
  %11 = getelementptr i8, ptr %10, i64 4
  %.val24 = load i32, ptr %11, align 4
  %12 = and i32 %.val24, 15
  %13 = icmp ne i32 %12, 0
  %14 = zext i1 %13 to i32
  %15 = ashr i32 %.val24, 4
  %16 = add nsw i32 %15, %14
  %17 = getelementptr inbounds nuw i8, ptr %0, i64 48
  %18 = getelementptr inbounds nuw i8, ptr %0, i64 56
  %19 = sext i32 %16 to i64
  %20 = shl nsw i64 %19, 2
  %21 = add nsw i64 %20, 8
  br label %22

22:                                               ; preds = %.lr.ph31, %.critedge
  %23 = phi ptr [ %10, %.lr.ph31 ], [ %90, %.critedge ]
  %indvars.iv33 = phi i64 [ 0, %.lr.ph31 ], [ %indvars.iv.next34, %.critedge ]
  %24 = load ptr, ptr %17, align 8
  %25 = getelementptr inbounds nuw i32, ptr %24, i64 %indvars.iv33
  %26 = load i32, ptr %25, align 4
  %27 = getelementptr i8, ptr %23, i64 4
  %.val23 = load i32, ptr %27, align 4
  %28 = icmp eq i32 %26, %.val23
  br i1 %28, label %.critedge, label %29

29:                                               ; preds = %22
  %30 = load ptr, ptr %18, align 8
  %31 = getelementptr inbounds nuw i32, ptr %30, i64 %indvars.iv33
  %32 = load i32, ptr %31, align 4
  %33 = icmp sgt i32 %32, 0
  br i1 %33, label %.critedge, label %34

34:                                               ; preds = %29
  %35 = tail call noalias noundef ptr @calloc(i64 noundef %21, i64 noundef 1) #21
  %36 = load i32, ptr %3, align 4
  %37 = load i32, ptr %2, align 8
  %38 = icmp eq i32 %36, %37
  br i1 %38, label %39, label %.Vec_PtrGrow.exit11_crit_edge.i

.Vec_PtrGrow.exit11_crit_edge.i:                  ; preds = %34
  %.pre.i = load ptr, ptr %5, align 8
  br label %Vec_PtrPush.exit

39:                                               ; preds = %34
  %40 = icmp slt i32 %36, 16
  br i1 %40, label %41, label %48

41:                                               ; preds = %39
  %42 = load ptr, ptr %5, align 8
  %.not9.i.i = icmp eq ptr %42, null
  br i1 %.not9.i.i, label %45, label %43

43:                                               ; preds = %41
  %44 = tail call dereferenceable_or_null(128) ptr @realloc(ptr noundef nonnull %42, i64 noundef 128) #24
  br label %Vec_PtrGrow.exit.i

45:                                               ; preds = %41
  %46 = tail call noalias dereferenceable_or_null(128) ptr @malloc(i64 noundef 128) #23
  br label %Vec_PtrGrow.exit.i

Vec_PtrGrow.exit.i:                               ; preds = %45, %43
  %47 = phi ptr [ %44, %43 ], [ %46, %45 ]
  store ptr %47, ptr %5, align 8
  store i32 16, ptr %2, align 8
  br label %Vec_PtrPush.exit

48:                                               ; preds = %39
  %49 = shl nuw nsw i32 %36, 1
  %50 = load ptr, ptr %5, align 8
  %.not9.i10.i = icmp eq ptr %50, null
  %51 = zext nneg i32 %49 to i64
  %52 = shl nuw nsw i64 %51, 3
  br i1 %.not9.i10.i, label %55, label %53

53:                                               ; preds = %48
  %54 = tail call ptr @realloc(ptr noundef nonnull %50, i64 noundef %52) #24
  br label %57

55:                                               ; preds = %48
  %56 = tail call noalias ptr @malloc(i64 noundef %52) #23
  br label %57

57:                                               ; preds = %55, %53
  %58 = phi ptr [ %54, %53 ], [ %56, %55 ]
  store ptr %58, ptr %5, align 8
  store i32 %49, ptr %2, align 8
  br label %Vec_PtrPush.exit

Vec_PtrPush.exit:                                 ; preds = %.Vec_PtrGrow.exit11_crit_edge.i, %Vec_PtrGrow.exit.i, %57
  %59 = phi ptr [ %.pre.i, %.Vec_PtrGrow.exit11_crit_edge.i ], [ %58, %57 ], [ %47, %Vec_PtrGrow.exit.i ]
  %60 = add nsw i32 %36, 1
  store i32 %60, ptr %3, align 4
  %61 = sext i32 %36 to i64
  %62 = getelementptr inbounds ptr, ptr %59, i64 %61
  store ptr %35, ptr %62, align 8
  %63 = load ptr, ptr %6, align 8
  %64 = getelementptr i8, ptr %63, i64 4
  %.val2226 = load i32, ptr %64, align 4
  %65 = icmp sgt i32 %.val2226, 0
  br i1 %65, label %.lr.ph, label %.critedge

.lr.ph:                                           ; preds = %Vec_PtrPush.exit
  %66 = getelementptr i8, ptr %63, i64 8
  %67 = lshr i64 %indvars.iv33, 4
  %68 = and i64 %67, 268435455
  %indvars.iv33.tr = trunc i64 %indvars.iv33 to i32
  %69 = shl i32 %indvars.iv33.tr, 1
  %70 = and i32 %69, 30
  br label %71

71:                                               ; preds = %.lr.ph, %71
  %indvars.iv = phi i64 [ 0, %.lr.ph ], [ %indvars.iv.next, %71 ]
  %.val25 = load ptr, ptr %66, align 8
  %72 = getelementptr inbounds nuw ptr, ptr %.val25, i64 %indvars.iv
  %73 = load ptr, ptr %72, align 8
  %74 = getelementptr inbounds nuw i32, ptr %73, i64 %68
  %75 = load i32, ptr %74, align 4
  %76 = lshr i32 %75, %70
  %77 = lshr i64 %indvars.iv, 4
  %78 = and i64 %77, 268435455
  %79 = getelementptr inbounds nuw i32, ptr %35, i64 %78
  %80 = load i32, ptr %79, align 4
  %indvars.iv.tr = trunc i64 %indvars.iv to i32
  %81 = shl i32 %indvars.iv.tr, 1
  %82 = and i32 %81, 30
  %83 = lshr i32 %80, %82
  %84 = xor i32 %83, %76
  %85 = and i32 %84, 3
  %86 = shl nuw i32 %85, %82
  %87 = xor i32 %86, %80
  store i32 %87, ptr %79, align 4
  %indvars.iv.next = add nuw nsw i64 %indvars.iv, 1
  %.val22 = load i32, ptr %64, align 4
  %88 = sext i32 %.val22 to i64
  %89 = icmp slt i64 %indvars.iv.next, %88
  br i1 %89, label %71, label %.critedge, !llvm.loop !23

.critedge:                                        ; preds = %71, %Vec_PtrPush.exit, %29, %22
  %90 = phi ptr [ %63, %Vec_PtrPush.exit ], [ %23, %29 ], [ %23, %22 ], [ %63, %71 ]
  %indvars.iv.next34 = add nuw nsw i64 %indvars.iv33, 1
  %91 = load ptr, ptr %0, align 8
  %92 = getelementptr i8, ptr %91, i64 16
  %.val = load i32, ptr %92, align 8
  %93 = sext i32 %.val to i64
  %94 = icmp slt i64 %indvars.iv.next34, %93
  br i1 %94, label %22, label %._crit_edge, !llvm.loop !24

._crit_edge:                                      ; preds = %.critedge, %1
  ret ptr %2
}